target datalayout = "e-m:e-p270:32:32-p271:32:32-p272:64:64-i64:64-i128:128-f80:128-n8:16:32:64-S128"
target triple = "x86_64-pc-linux-gnu"

@__func__.wmem_ascii_strdown = private unnamed_addr constant [19 x i8] c"wmem_ascii_strdown\00", align 1
@.str.1 = private unnamed_addr constant [12 x i8] c"str != NULL\00", align 1

; Function Attrs: null_pointer_is_valid sspstrong uwtable
define ptr @wmem_ascii_strdown(ptr noundef %0, ptr noundef %1, i64 noundef %2) #0 {
  %4 = alloca ptr, align 8
  %5 = alloca ptr, align 8
  %6 = alloca ptr, align 8
  %7 = alloca i64, align 8
  %8 = alloca ptr, align 8
  %9 = alloca ptr, align 8
  %10 = alloca i32, align 4
  %11 = alloca i32, align 4
  %12 = alloca i32, align 4
  store ptr %0, ptr %5, align 8
  store ptr %1, ptr %6, align 8
  store i64 %2, ptr %7, align 8
  call void @llvm.lifetime.start.p0(i64 8, ptr %8) #15
  call void @llvm.lifetime.start.p0(i64 8, ptr %9) #15
  br label %13

13:                                               ; preds = %3
  call void @llvm.lifetime.start.p0(i64 4, ptr %10) #15
  %14 = load ptr, ptr %6, align 8
  %15 = icmp ne ptr %14, null
  br i1 %15, label %16, label %17

16:                                               ; preds = %13
  store i32 1, ptr %10, align 4
  br label %18

17:                                               ; preds = %13
  store i32 0, ptr %10, align 4
  br label %18

18:                                               ; preds = %17, %16
  %19 = load i32, ptr %10, align 4
  store i32 %19, ptr %11, align 4
  call void @llvm.lifetime.end.p0(i64 4, ptr %10) #15
  %20 = load i32, ptr %11, align 4
  %21 = sext i32 %20 to i64
  %22 = call i64 @llvm.expect.i64(i64 %21, i64 1)
  %23 = icmp ne i64 %22, 0
  br i1 %23, label %24, label %25

24:                                               ; preds = %18
  br label %26

25:                                               ; preds = %18
  call void @g_return_if_fail_warning(ptr noundef null, ptr noundef @__func__.wmem_ascii_strdown, ptr noundef @.str.1)
  store ptr null, ptr %4, align 8
  store i32 1, ptr %12, align 4
  br label %54

26:                                               ; preds = %24
  br label %27

27:                                               ; preds = %26
  br label %28

28:                                               ; preds = %27
  %29 = load i64, ptr %7, align 8
  %30 = icmp slt i64 %29, 0
  br i1 %30, label %31, label %34

31:                                               ; preds = %28
  %32 = load ptr, ptr %6, align 8
  %33 = call i64 @strlen(ptr noundef %32) #16
  store i64 %33, ptr %7, align 8
  br label %34

34:                                               ; preds = %31, %28
  %35 = load ptr, ptr %5, align 8
  %36 = load ptr, ptr %6, align 8
  %37 = load i64, ptr %7, align 8
  %38 = call noalias ptr @wmem_strndup(ptr noundef %35, ptr noundef %36, i64 noundef %37)
  store ptr %38, ptr %8, align 8
  %39 = load ptr, ptr %8, align 8
  store ptr %39, ptr %9, align 8
  br label %40

40:                                               ; preds = %49, %34
  %41 = load ptr, ptr %9, align 8
  %42 = load i8, ptr %41, align 1
  %43 = icmp ne i8 %42, 0
  br i1 %43, label %44, label %52

44:                                               ; preds = %40
  %45 = load ptr, ptr %9, align 8
  %46 = load i8, ptr %45, align 1
  %47 = call signext i8 @g_ascii_tolower(i8 noundef signext %46) #18
  %48 = load ptr, ptr %9, align 8
  store i8 %47, ptr %48, align 1
  br label %49

49:                                               ; preds = %44
  %50 = load ptr, ptr %9, align 8
  %51 = getelementptr i8, ptr %50, i32 1
  store ptr %51, ptr %9, align 8
  br label %40, !llvm.loop !16

52:                                               ; preds = %40
  %53 = load ptr, ptr %8, align 8
  store ptr %53, ptr %4, align 8
  store i32 1, ptr %12, align 4
  br label %54

54:                                               ; preds = %52, %25
  call void @llvm.lifetime.end.p0(i64 8, ptr %9) #15
  call void @llvm.lifetime.end.p0(i64 8, ptr %8) #15
  %55 = load ptr, ptr %4, align 8
  ret ptr %55
}