; Function Attrs: null_pointer_is_valid sspstrong uwtable
define noalias noundef ptr @wmem_ascii_strdown(ptr noundef %0, ptr noundef %1, i64 noundef %2) local_unnamed_addr #0 {
  %.not = icmp eq ptr %1, null
  br i1 %.not, label %4, label %5, !prof !15

4:                                                ; preds = %3
  tail call void @g_return_if_fail_warning(ptr noundef null, ptr noundef nonnull @__func__.wmem_ascii_strdown, ptr noundef nonnull @.str.1)
  br label %.loopexit

5:                                                ; preds = %3
  %6 = icmp slt i64 %2, 0
  br i1 %6, label %7, label %9

7:                                                ; preds = %5
  %8 = tail call i64 @strlen(ptr noundef nonnull dereferenceable(1) %1) #24
  br label %9

9:                                                ; preds = %7, %5
  %.016 = phi i64 [ %8, %7 ], [ %2, %5 ]
  %10 = tail call noalias ptr @wmem_strndup(ptr noundef %0, ptr noundef nonnull %1, i64 noundef %.016)
  %11 = load i8, ptr %10, align 1
  %.not2021 = icmp eq i8 %11, 0
  br i1 %.not2021, label %.loopexit, label %.lr.ph

.lr.ph:                                           ; preds = %9, %.lr.ph
  %12 = phi i8 [ %15, %.lr.ph ], [ %11, %9 ]
  %.01522 = phi ptr [ %14, %.lr.ph ], [ %10, %9 ]
  %13 = tail call signext i8 @g_ascii_tolower(i8 noundef signext %12) #26
  store i8 %13, ptr %.01522, align 1
  %14 = getelementptr i8, ptr %.01522, i64 1
  %15 = load i8, ptr %14, align 1
  %.not20 = icmp eq i8 %15, 0
  br i1 %.not20, label %.loopexit, label %.lr.ph, !llvm.loop !16

.loopexit:                                        ; preds = %.lr.ph, %9, %4
  %.0 = phi ptr [ null, %4 ], [ %10, %9 ], [ %10, %.lr.ph ]
  ret ptr %.0
}